target datalayout = "e-m:e-p270:32:32-p271:32:32-p272:64:64-i64:64-i128:128-f80:128-n8:16:32:64-S128"
target triple = "x86_64-pc-linux-gnu"

%struct._zval_struct = type { %union._zend_value, %union.anon.3, %union.anon.6 }
%union._zend_value = type { i64 }
%union.anon.3 = type { i32 }
%union.anon.6 = type { i32 }
%struct._zend_refcounted_h = type { i32, %union.anon }
%union.anon = type { i32 }
%struct._zend_object = type { %struct._zend_refcounted_h, i32, ptr, ptr, ptr, [1 x %struct._zval_struct] }
%struct._zend_execute_data = type { ptr, ptr, ptr, ptr, %struct._zval_struct, ptr, ptr, ptr, ptr }

; Function Attrs: nounwind uwtable
define internal ptr @spl_object_storage_from_obj(ptr noundef %0) #0 {
  %2 = alloca ptr, align 8
  store ptr %0, ptr %2, align 8
  %3 = load ptr, ptr %2, align 8
  %4 = getelementptr inbounds i8, ptr %3, i64 -88
  ret ptr %4
}

; Function Attrs: nounwind uwtable
define hidden void @zim_SplObjectStorage_contains(ptr noundef %0, ptr noundef %1) #0 {
  %3 = alloca ptr, align 8
  %4 = alloca ptr, align 8
  %5 = alloca ptr, align 8
  %6 = alloca ptr, align 8
  %7 = alloca i1, align 1
  %8 = alloca ptr, align 8
  %9 = alloca ptr, align 8
  %10 = alloca ptr, align 8
  %11 = alloca i8, align 1
  %12 = alloca ptr, align 8
  %13 = alloca ptr, align 8
  %14 = alloca ptr, align 8
  %15 = alloca ptr, align 8
  %16 = alloca i32, align 4
  %17 = alloca i32, align 4
  %18 = alloca i32, align 4
  %19 = alloca i32, align 4
  %20 = alloca i32, align 4
  %21 = alloca ptr, align 8
  %22 = alloca ptr, align 8
  %23 = alloca i32, align 4
  %24 = alloca ptr, align 8
  %25 = alloca i8, align 1
  %26 = alloca i8, align 1
  %27 = alloca i32, align 4
  store ptr %0, ptr %12, align 8
  store ptr %1, ptr %13, align 8
  %28 = load ptr, ptr %12, align 8
  %29 = getelementptr inbounds %struct._zend_execute_data, ptr %28, i32 0, i32 4
  %30 = getelementptr inbounds %struct._zval_struct, ptr %29, i32 0, i32 0
  %31 = load ptr, ptr %30, align 8
  %32 = call ptr @spl_object_storage_from_obj(ptr noundef %31)
  store ptr %32, ptr %15, align 8
  br label %33

33:                                               ; preds = %2
  store i32 0, ptr %16, align 4
  store i32 1, ptr %17, align 4
  store i32 1, ptr %18, align 4
  %34 = load ptr, ptr %12, align 8
  %35 = getelementptr inbounds %struct._zend_execute_data, ptr %34, i32 0, i32 4
  %36 = getelementptr inbounds %struct._zval_struct, ptr %35, i32 0, i32 2
  %37 = load i32, ptr %36, align 4
  store i32 %37, ptr %19, align 4
  store i32 0, ptr %20, align 4
  store ptr null, ptr %22, align 8
  store i32 0, ptr %23, align 4
  store ptr null, ptr %24, align 8
  store i8 0, ptr %25, align 1
  store i8 0, ptr %26, align 1
  store i32 0, ptr %27, align 4
  br label %38

38:                                               ; preds = %33
  %39 = load i32, ptr %19, align 4
  %40 = load i32, ptr %17, align 4
  %41 = icmp ult i32 %39, %40
  %42 = xor i1 %41, true
  %43 = xor i1 %42, true
  %44 = zext i1 %43 to i32
  %45 = sext i32 %44 to i64
  %46 = icmp ne i64 %45, 0
  br i1 %46, label %56, label %47

47:                                               ; preds = %38
  %48 = load i32, ptr %19, align 4
  %49 = load i32, ptr %18, align 4
  %50 = icmp ugt i32 %48, %49
  %51 = xor i1 %50, true
  %52 = xor i1 %51, true
  %53 = zext i1 %52 to i32
  %54 = sext i32 %53 to i64
  %55 = icmp ne i64 %54, 0
  br i1 %55, label %56, label %59

56:                                               ; preds = %47, %38
  %57 = load i32, ptr %17, align 4
  %58 = load i32, ptr %18, align 4
  call void @zend_wrong_parameters_count_error(i32 noundef %57, i32 noundef %58)
  store i32 1, ptr %27, align 4
  br label %162

59:                                               ; preds = %47
  %60 = load ptr, ptr %12, align 8
  %61 = getelementptr inbounds %struct._zval_struct, ptr %60, i64 4
  store ptr %61, ptr %21, align 8
  %62 = load i32, ptr %20, align 4
  %63 = add i32 %62, 1
  store i32 %63, ptr %20, align 4
  %64 = load i32, ptr %20, align 4
  %65 = load i32, ptr %17, align 4
  %66 = icmp ule i32 %64, %65
  br i1 %66, label %72, label %67

67:                                               ; preds = %59
  %68 = load i8, ptr %26, align 1
  %69 = trunc i8 %68 to i1
  %70 = zext i1 %69 to i32
  %71 = icmp eq i32 %70, 1
  br label %72

72:                                               ; preds = %67, %59
  %73 = phi i1 [ true, %59 ], [ %71, %67 ]
  call void @llvm.assume(i1 %73)
  %74 = load i32, ptr %20, align 4
  %75 = load i32, ptr %17, align 4
  %76 = icmp ugt i32 %74, %75
  br i1 %76, label %82, label %77

77:                                               ; preds = %72
  %78 = load i8, ptr %26, align 1
  %79 = trunc i8 %78 to i1
  %80 = zext i1 %79 to i32
  %81 = icmp eq i32 %80, 0
  br label %82

82:                                               ; preds = %77, %72
  %83 = phi i1 [ true, %72 ], [ %81, %77 ]
  call void @llvm.assume(i1 %83)
  %84 = load i8, ptr %26, align 1
  %85 = trunc i8 %84 to i1
  br i1 %85, label %86, label %97

86:                                               ; preds = %82
  %87 = load i32, ptr %20, align 4
  %88 = load i32, ptr %19, align 4
  %89 = icmp ugt i32 %87, %88
  %90 = xor i1 %89, true
  %91 = xor i1 %90, true
  %92 = zext i1 %91 to i32
  %93 = sext i32 %92 to i64
  %94 = icmp ne i64 %93, 0
  br i1 %94, label %95, label %96

95:                                               ; preds = %86
  br label %162

96:                                               ; preds = %86
  br label %97

97:                                               ; preds = %96, %82
  %98 = load ptr, ptr %21, align 8
  %99 = getelementptr inbounds %struct._zval_struct, ptr %98, i32 1
  store ptr %99, ptr %21, align 8
  %100 = load ptr, ptr %21, align 8
  store ptr %100, ptr %22, align 8
  %101 = load ptr, ptr %22, align 8
  store ptr %101, ptr %8, align 8
  store ptr %14, ptr %9, align 8
  store ptr null, ptr %10, align 8
  store i8 0, ptr %11, align 1
  %102 = load ptr, ptr %8, align 8
  store ptr %102, ptr %5, align 8
  %103 = load ptr, ptr %5, align 8
  %104 = getelementptr inbounds %struct._zval_struct, ptr %103, i32 0, i32 1
  %105 = load i8, ptr %104, align 8
  %106 = zext i8 %105 to i32
  %107 = icmp eq i32 %106, 8
  br i1 %107, label %108, label %130

108:                                              ; preds = %97
  %109 = load ptr, ptr %10, align 8
  %110 = icmp ne ptr %109, null
  br i1 %110, label %111, label %126

111:                                              ; preds = %108
  %112 = load ptr, ptr %8, align 8
  %113 = load ptr, ptr %112, align 8
  %114 = getelementptr inbounds %struct._zend_object, ptr %113, i32 0, i32 2
  %115 = load ptr, ptr %114, align 8
  %116 = load ptr, ptr %10, align 8
  store ptr %115, ptr %3, align 8
  store ptr %116, ptr %4, align 8
  %117 = load ptr, ptr %3, align 8
  %118 = load ptr, ptr %4, align 8
  %119 = icmp eq ptr %117, %118
  br i1 %119, label %124, label %120

120:                                              ; preds = %111
  %121 = load ptr, ptr %3, align 8
  %122 = load ptr, ptr %4, align 8
  %123 = call zeroext i1 @instanceof_function_slow(ptr noundef %121, ptr noundef %122) #10
  br label %124

124:                                              ; preds = %120, %111
  %125 = phi i1 [ true, %111 ], [ %123, %120 ]
  br i1 %125, label %126, label %130

126:                                              ; preds = %124, %108
  %127 = load ptr, ptr %8, align 8
  %128 = load ptr, ptr %127, align 8
  %129 = load ptr, ptr %9, align 8
  store ptr %128, ptr %129, align 8
  br label %143

130:                                              ; preds = %124, %97
  %131 = load i8, ptr %11, align 1
  %132 = trunc i8 %131 to i1
  br i1 %132, label %133, label %142

133:                                              ; preds = %130
  %134 = load ptr, ptr %8, align 8
  store ptr %134, ptr %6, align 8
  %135 = load ptr, ptr %6, align 8
  %136 = getelementptr inbounds %struct._zval_struct, ptr %135, i32 0, i32 1
  %137 = load i8, ptr %136, align 8
  %138 = zext i8 %137 to i32
  %139 = icmp eq i32 %138, 1
  br i1 %139, label %140, label %142

140:                                              ; preds = %133
  %141 = load ptr, ptr %9, align 8
  store ptr null, ptr %141, align 8
  br label %143

142:                                              ; preds = %133, %130
  store i1 false, ptr %7, align 1
  br label %144

143:                                              ; preds = %140, %126
  store i1 true, ptr %7, align 1
  br label %144

144:                                              ; preds = %143, %142
  %145 = load i1, ptr %7, align 1
  %146 = xor i1 %145, true
  %147 = xor i1 %146, true
  %148 = xor i1 %147, true
  %149 = zext i1 %148 to i32
  %150 = sext i32 %149 to i64
  %151 = icmp ne i64 %150, 0
  br i1 %151, label %152, label %153

152:                                              ; preds = %144
  store i32 18, ptr %23, align 4
  store i32 9, ptr %27, align 4
  br label %162

153:                                              ; preds = %144
  %154 = load i32, ptr %20, align 4
  %155 = load i32, ptr %18, align 4
  %156 = icmp eq i32 %154, %155
  br i1 %156, label %160, label %157

157:                                              ; preds = %153
  %158 = load i32, ptr %18, align 4
  %159 = icmp eq i32 %158, -1
  br label %160

160:                                              ; preds = %157, %153
  %161 = phi i1 [ true, %153 ], [ %159, %157 ]
  call void @llvm.assume(i1 %161)
  br label %162

162:                                              ; preds = %160, %152, %95, %56
  %163 = load i32, ptr %27, align 4
  %164 = icmp ne i32 %163, 0
  %165 = xor i1 %164, true
  %166 = xor i1 %165, true
  %167 = zext i1 %166 to i32
  %168 = sext i32 %167 to i64
  %169 = icmp ne i64 %168, 0
  br i1 %169, label %170, label %176

170:                                              ; preds = %162
  %171 = load i32, ptr %27, align 4
  %172 = load i32, ptr %20, align 4
  %173 = load ptr, ptr %24, align 8
  %174 = load i32, ptr %23, align 4
  %175 = load ptr, ptr %22, align 8
  call void @zend_wrong_parameter_error(i32 noundef %171, i32 noundef %172, ptr noundef %173, i32 noundef %174, ptr noundef %175)
  br label %187

176:                                              ; preds = %162
  br label %177

177:                                              ; preds = %176
  br label %178

178:                                              ; preds = %177
  br label %179

179:                                              ; preds = %178
  %180 = load ptr, ptr %15, align 8
  %181 = load ptr, ptr %14, align 8
  %182 = call zeroext i1 @spl_object_storage_contains(ptr noundef %180, ptr noundef %181)
  %183 = select i1 %182, i32 3, i32 2
  %184 = load ptr, ptr %13, align 8
  %185 = getelementptr inbounds %struct._zval_struct, ptr %184, i32 0, i32 1
  store i32 %183, ptr %185, align 8
  br label %186

186:                                              ; preds = %179
  br label %187

187:                                              ; preds = %186, %170
  ret void
}